target datalayout = "e-m:e-p270:32:32-p271:32:32-p272:64:64-i64:64-i128:128-f80:128-n8:16:32:64-S128"
target triple = "x86_64-pc-linux-gnu"

%struct.sat_solver3_t = type { i32, i32, i32, i32, %struct.Sat_Mem_t_, i32, i32, ptr, ptr, i32, i32, i32, i32, i32, i64, i64, i64, ptr, ptr, i32, i32, %struct.veci_t, ptr, i32, ptr, ptr, ptr, ptr, ptr, ptr, ptr, ptr, %struct.veci_t, %struct.veci_t, %struct.veci_t, %struct.veci_t, ptr, %struct.veci_t, i32, i32, i32, double, double, i32, i32, %struct.stats_t, i32, i32, i32, i32, i32, i64, i64, i64, %struct.veci_t, ptr, i32, i32, i32, %struct.veci_t, %struct.veci_t, i32, i32, i32, ptr, ptr, i32, ptr, i32, i32, %struct.veci_t, ptr, ptr }
%struct.Sat_Mem_t_ = type { [2 x i32], [2 x i32], [2 x i32], [2 x i32], i32, i32, i32, i32, ptr }
%struct.stats_t = type { i32, i32, i32, i64, i64, i64, i64, i64, i64, i64 }
%struct.veci_t = type { i32, i32, ptr }

@stdout = external global ptr, align 8
@.str.13 = private unnamed_addr constant [51 x i8] c"Failed to realloc memory from %.1f MB to %.1f MB.\0A\00", align 1

; Function Attrs: inlinehint nounwind uwtable
define internal i32 @veci_size(ptr noundef %0) #1 {
  %2 = alloca ptr, align 8
  store ptr %0, ptr %2, align 8, !tbaa !45
  %3 = load ptr, ptr %2, align 8, !tbaa !45
  %4 = getelementptr inbounds nuw %struct.veci_t, ptr %3, i32 0, i32 1
  %5 = load i32, ptr %4, align 4, !tbaa !46
  ret i32 %5
}

; Function Attrs: inlinehint nounwind uwtable
define internal void @order_assigned(ptr noundef %0, i32 noundef %1) #1 {
  %3 = alloca ptr, align 8
  %4 = alloca i32, align 4
  store ptr %0, ptr %3, align 8, !tbaa !3
  store i32 %1, ptr %4, align 4, !tbaa !8
  ret void
}

; Function Attrs: inlinehint nounwind uwtable
define internal void @var_set_level(ptr noundef %0, i32 noundef %1, i32 noundef %2) #1 {
  %4 = alloca ptr, align 8
  %5 = alloca i32, align 4
  %6 = alloca i32, align 4
  store ptr %0, ptr %4, align 8, !tbaa !3
  store i32 %1, ptr %5, align 4, !tbaa !8
  store i32 %2, ptr %6, align 4, !tbaa !8
  %7 = load i32, ptr %6, align 4, !tbaa !8
  %8 = load ptr, ptr %4, align 8, !tbaa !3
  %9 = getelementptr inbounds nuw %struct.sat_solver3_t, ptr %8, i32 0, i32 24
  %10 = load ptr, ptr %9, align 8, !tbaa !91
  %11 = load i32, ptr %5, align 4, !tbaa !8
  %12 = sext i32 %11 to i64
  %13 = getelementptr inbounds i32, ptr %10, i64 %12
  store i32 %7, ptr %13, align 4, !tbaa !8
  ret void
}

; Function Attrs: inlinehint nounwind uwtable
define internal i32 @sat_solver3_dl(ptr noundef %0) #1 {
  %2 = alloca ptr, align 8
  store ptr %0, ptr %2, align 8, !tbaa !3
  %3 = load ptr, ptr %2, align 8, !tbaa !3
  %4 = getelementptr inbounds nuw %struct.sat_solver3_t, ptr %3, i32 0, i32 35
  %5 = call i32 @veci_size(ptr noundef %4)
  ret i32 %5
}

; Function Attrs: inlinehint nounwind uwtable
define internal void @var_set_value(ptr noundef %0, i32 noundef %1, i32 noundef %2) #1 {
  %4 = alloca ptr, align 8
  %5 = alloca i32, align 4
  %6 = alloca i32, align 4
  store ptr %0, ptr %4, align 8, !tbaa !3
  store i32 %1, ptr %5, align 4, !tbaa !8
  store i32 %2, ptr %6, align 4, !tbaa !8
  %7 = load i32, ptr %6, align 4, !tbaa !8
  %8 = trunc i32 %7 to i8
  %9 = load ptr, ptr %4, align 8, !tbaa !3
  %10 = getelementptr inbounds nuw %struct.sat_solver3_t, ptr %9, i32 0, i32 25
  %11 = load ptr, ptr %10, align 8, !tbaa !10
  %12 = load i32, ptr %5, align 4, !tbaa !8
  %13 = sext i32 %12 to i64
  %14 = getelementptr inbounds i8, ptr %11, i64 %13
  store i8 %8, ptr %14, align 1, !tbaa !25
  ret void
}

; Function Attrs: inlinehint nounwind uwtable
define internal i32 @lit_sign(i32 noundef %0) #1 {
  %2 = alloca i32, align 4
  store i32 %0, ptr %2, align 4, !tbaa !8
  %3 = load i32, ptr %2, align 4, !tbaa !8
  %4 = and i32 %3, 1
  ret i32 %4
}

; Function Attrs: inlinehint nounwind uwtable
define internal i32 @var_value(ptr noundef %0, i32 noundef %1) #1 {
  %3 = alloca ptr, align 8
  %4 = alloca i32, align 4
  store ptr %0, ptr %3, align 8, !tbaa !3
  store i32 %1, ptr %4, align 4, !tbaa !8
  %5 = load ptr, ptr %3, align 8, !tbaa !3
  %6 = getelementptr inbounds nuw %struct.sat_solver3_t, ptr %5, i32 0, i32 25
  %7 = load ptr, ptr %6, align 8, !tbaa !10
  %8 = load i32, ptr %4, align 4, !tbaa !8
  %9 = sext i32 %8 to i64
  %10 = getelementptr inbounds i8, ptr %7, i64 %9
  %11 = load i8, ptr %10, align 1, !tbaa !25
  %12 = sext i8 %11 to i32
  ret i32 %12
}

; Function Attrs: inlinehint nounwind uwtable
define internal i32 @lit_var(i32 noundef %0) #1 {
  %2 = alloca i32, align 4
  store i32 %0, ptr %2, align 4, !tbaa !8
  %3 = load i32, ptr %2, align 4, !tbaa !8
  %4 = ashr i32 %3, 1
  ret i32 %4
}

; Function Attrs: inlinehint nounwind uwtable
define internal i32 @sat_solver3_enqueue(ptr noundef %0, i32 noundef %1, i32 noundef %2) #1 {
  %4 = alloca i32, align 4
  %5 = alloca ptr, align 8
  %6 = alloca i32, align 4
  %7 = alloca i32, align 4
  %8 = alloca i32, align 4
  %9 = alloca i32, align 4
  store ptr %0, ptr %5, align 8, !tbaa !3
  store i32 %1, ptr %6, align 4, !tbaa !8
  store i32 %2, ptr %7, align 4, !tbaa !8
  call void @llvm.lifetime.start.p0(i64 4, ptr %8) #13
  %10 = load i32, ptr %6, align 4, !tbaa !8
  %11 = call i32 @lit_var(i32 noundef %10)
  store i32 %11, ptr %8, align 4, !tbaa !8
  %12 = load ptr, ptr %5, align 8, !tbaa !3
  %13 = getelementptr inbounds nuw %struct.sat_solver3_t, ptr %12, i32 0, i32 22
  %14 = load ptr, ptr %13, align 8, !tbaa !70
  %15 = load i32, ptr %8, align 4, !tbaa !8
  %16 = sext i32 %15 to i64
  %17 = getelementptr inbounds i8, ptr %14, i64 %16
  %18 = load i8, ptr %17, align 1, !tbaa !25
  %19 = sext i8 %18 to i32
  %20 = icmp eq i32 %19, 0
  br i1 %20, label %21, label %28

21:                                               ; preds = %3
  %22 = load ptr, ptr %5, align 8, !tbaa !3
  %23 = getelementptr inbounds nuw %struct.sat_solver3_t, ptr %22, i32 0, i32 22
  %24 = load ptr, ptr %23, align 8, !tbaa !70
  %25 = load i32, ptr %8, align 4, !tbaa !8
  %26 = sext i32 %25 to i64
  %27 = getelementptr inbounds i8, ptr %24, i64 %26
  store i8 1, ptr %27, align 1, !tbaa !25
  br label %28

28:                                               ; preds = %21, %3
  %29 = load ptr, ptr %5, align 8, !tbaa !3
  %30 = load i32, ptr %8, align 4, !tbaa !8
  %31 = call i32 @var_value(ptr noundef %29, i32 noundef %30)
  %32 = icmp ne i32 %31, 3
  br i1 %32, label %33, label %41

33:                                               ; preds = %28
  %34 = load ptr, ptr %5, align 8, !tbaa !3
  %35 = load i32, ptr %8, align 4, !tbaa !8
  %36 = call i32 @var_value(ptr noundef %34, i32 noundef %35)
  %37 = load i32, ptr %6, align 4, !tbaa !8
  %38 = call i32 @lit_sign(i32 noundef %37)
  %39 = icmp eq i32 %36, %38
  %40 = zext i1 %39 to i32
  store i32 %40, ptr %4, align 4
  store i32 1, ptr %9, align 4
  br label %69

41:                                               ; preds = %28
  %42 = load ptr, ptr %5, align 8, !tbaa !3
  %43 = load i32, ptr %8, align 4, !tbaa !8
  %44 = load i32, ptr %6, align 4, !tbaa !8
  %45 = call i32 @lit_sign(i32 noundef %44)
  call void @var_set_value(ptr noundef %42, i32 noundef %43, i32 noundef %45)
  %46 = load ptr, ptr %5, align 8, !tbaa !3
  %47 = load i32, ptr %8, align 4, !tbaa !8
  %48 = load ptr, ptr %5, align 8, !tbaa !3
  %49 = call i32 @sat_solver3_dl(ptr noundef %48)
  call void @var_set_level(ptr noundef %46, i32 noundef %47, i32 noundef %49)
  %50 = load i32, ptr %7, align 4, !tbaa !8
  %51 = load ptr, ptr %5, align 8, !tbaa !3
  %52 = getelementptr inbounds nuw %struct.sat_solver3_t, ptr %51, i32 0, i32 30
  %53 = load ptr, ptr %52, align 8, !tbaa !71
  %54 = load i32, ptr %8, align 4, !tbaa !8
  %55 = sext i32 %54 to i64
  %56 = getelementptr inbounds i32, ptr %53, i64 %55
  store i32 %50, ptr %56, align 4, !tbaa !8
  %57 = load i32, ptr %6, align 4, !tbaa !8
  %58 = load ptr, ptr %5, align 8, !tbaa !3
  %59 = getelementptr inbounds nuw %struct.sat_solver3_t, ptr %58, i32 0, i32 31
  %60 = load ptr, ptr %59, align 8, !tbaa !60
  %61 = load ptr, ptr %5, align 8, !tbaa !3
  %62 = getelementptr inbounds nuw %struct.sat_solver3_t, ptr %61, i32 0, i32 3
  %63 = load i32, ptr %62, align 4, !tbaa !58
  %64 = add nsw i32 %63, 1
  store i32 %64, ptr %62, align 4, !tbaa !58
  %65 = sext i32 %63 to i64
  %66 = getelementptr inbounds i32, ptr %60, i64 %65
  store i32 %57, ptr %66, align 4, !tbaa !8
  %67 = load ptr, ptr %5, align 8, !tbaa !3
  %68 = load i32, ptr %8, align 4, !tbaa !8
  call void @order_assigned(ptr noundef %67, i32 noundef %68)
  store i32 1, ptr %4, align 4
  store i32 1, ptr %9, align 4
  br label %69

69:                                               ; preds = %41, %33
  call void @llvm.lifetime.end.p0(i64 4, ptr %8) #13
  %70 = load i32, ptr %4, align 4
  ret i32 %70
}

; Function Attrs: inlinehint nounwind uwtable
define internal void @veci_push(ptr noundef %0, i32 noundef %1) #1 {
  %3 = alloca ptr, align 8
  %4 = alloca i32, align 4
  %5 = alloca i32, align 4
  store ptr %0, ptr %3, align 8, !tbaa !45
  store i32 %1, ptr %4, align 4, !tbaa !8
  %6 = load ptr, ptr %3, align 8, !tbaa !45
  %7 = getelementptr inbounds nuw %struct.veci_t, ptr %6, i32 0, i32 1
  %8 = load i32, ptr %7, align 4, !tbaa !46
  %9 = load ptr, ptr %3, align 8, !tbaa !45
  %10 = getelementptr inbounds nuw %struct.veci_t, ptr %9, i32 0, i32 0
  %11 = load i32, ptr %10, align 8, !tbaa !47
  %12 = icmp eq i32 %8, %11
  br i1 %12, label %13, label %74

13:                                               ; preds = %2
  call void @llvm.lifetime.start.p0(i64 4, ptr %5) #13
  %14 = load ptr, ptr %3, align 8, !tbaa !45
  %15 = getelementptr inbounds nuw %struct.veci_t, ptr %14, i32 0, i32 0
  %16 = load i32, ptr %15, align 8, !tbaa !47
  %17 = icmp slt i32 %16, 4
  br i1 %17, label %18, label %23

18:                                               ; preds = %13
  %19 = load ptr, ptr %3, align 8, !tbaa !45
  %20 = getelementptr inbounds nuw %struct.veci_t, ptr %19, i32 0, i32 0
  %21 = load i32, ptr %20, align 8, !tbaa !47
  %22 = mul nsw i32 %21, 2
  br label %29

23:                                               ; preds = %13
  %24 = load ptr, ptr %3, align 8, !tbaa !45
  %25 = getelementptr inbounds nuw %struct.veci_t, ptr %24, i32 0, i32 0
  %26 = load i32, ptr %25, align 8, !tbaa !47
  %27 = sdiv i32 %26, 2
  %28 = mul nsw i32 %27, 3
  br label %29

29:                                               ; preds = %23, %18
  %30 = phi i32 [ %22, %18 ], [ %28, %23 ]
  store i32 %30, ptr %5, align 4, !tbaa !8
  %31 = load ptr, ptr %3, align 8, !tbaa !45
  %32 = getelementptr inbounds nuw %struct.veci_t, ptr %31, i32 0, i32 2
  %33 = load ptr, ptr %32, align 8, !tbaa !48
  %34 = icmp ne ptr %33, null
  br i1 %34, label %35, label %43

35:                                               ; preds = %29
  %36 = load ptr, ptr %3, align 8, !tbaa !45
  %37 = getelementptr inbounds nuw %struct.veci_t, ptr %36, i32 0, i32 2
  %38 = load ptr, ptr %37, align 8, !tbaa !48
  %39 = load i32, ptr %5, align 4, !tbaa !8
  %40 = sext i32 %39 to i64
  %41 = mul i64 4, %40
  %42 = call ptr @realloc(ptr noundef %38, i64 noundef %41) #14
  br label %48

43:                                               ; preds = %29
  %44 = load i32, ptr %5, align 4, !tbaa !8
  %45 = sext i32 %44 to i64
  %46 = mul i64 4, %45
  %47 = call noalias ptr @malloc(i64 noundef %46) #15
  br label %48

48:                                               ; preds = %43, %35
  %49 = phi ptr [ %42, %35 ], [ %47, %43 ]
  %50 = load ptr, ptr %3, align 8, !tbaa !45
  %51 = getelementptr inbounds nuw %struct.veci_t, ptr %50, i32 0, i32 2
  store ptr %49, ptr %51, align 8, !tbaa !48
  %52 = load ptr, ptr %3, align 8, !tbaa !45
  %53 = getelementptr inbounds nuw %struct.veci_t, ptr %52, i32 0, i32 2
  %54 = load ptr, ptr %53, align 8, !tbaa !48
  %55 = icmp eq ptr %54, null
  br i1 %55, label %56, label %70

56:                                               ; preds = %48
  %57 = load ptr, ptr %3, align 8, !tbaa !45
  %58 = getelementptr inbounds nuw %struct.veci_t, ptr %57, i32 0, i32 0
  %59 = load i32, ptr %58, align 8, !tbaa !47
  %60 = sitofp i32 %59 to double
  %61 = fmul double 1.000000e+00, %60
  %62 = fdiv double %61, 0x4130000000000000
  %63 = load i32, ptr %5, align 4, !tbaa !8
  %64 = sitofp i32 %63 to double
  %65 = fmul double 1.000000e+00, %64
  %66 = fdiv double %65, 0x4130000000000000
  %67 = call i32 (ptr, ...) @printf(ptr noundef @.str.13, double noundef %62, double noundef %66)
  %68 = load ptr, ptr @stdout, align 8, !tbaa !49
  %69 = call i32 @fflush(ptr noundef %68)
  br label %70

70:                                               ; preds = %56, %48
  %71 = load i32, ptr %5, align 4, !tbaa !8
  %72 = load ptr, ptr %3, align 8, !tbaa !45
  %73 = getelementptr inbounds nuw %struct.veci_t, ptr %72, i32 0, i32 0
  store i32 %71, ptr %73, align 8, !tbaa !47
  call void @llvm.lifetime.end.p0(i64 4, ptr %5) #13
  br label %74

74:                                               ; preds = %70, %2
  %75 = load i32, ptr %4, align 4, !tbaa !8
  %76 = load ptr, ptr %3, align 8, !tbaa !45
  %77 = getelementptr inbounds nuw %struct.veci_t, ptr %76, i32 0, i32 2
  %78 = load ptr, ptr %77, align 8, !tbaa !48
  %79 = load ptr, ptr %3, align 8, !tbaa !45
  %80 = getelementptr inbounds nuw %struct.veci_t, ptr %79, i32 0, i32 1
  %81 = load i32, ptr %80, align 4, !tbaa !46
  %82 = add nsw i32 %81, 1
  store i32 %82, ptr %80, align 4, !tbaa !46
  %83 = sext i32 %81 to i64
  %84 = getelementptr inbounds i32, ptr %78, i64 %83
  store i32 %75, ptr %84, align 4, !tbaa !8
  ret void
}

; Function Attrs: inlinehint nounwind uwtable
define internal i32 @sat_solver3_decision(ptr noundef %0, i32 noundef %1) #1 {
  %3 = alloca ptr, align 8
  %4 = alloca i32, align 4
  store ptr %0, ptr %3, align 8, !tbaa !3
  store i32 %1, ptr %4, align 4, !tbaa !8
  %5 = load ptr, ptr %3, align 8, !tbaa !3
  %6 = getelementptr inbounds nuw %struct.sat_solver3_t, ptr %5, i32 0, i32 35
  %7 = load ptr, ptr %3, align 8, !tbaa !3
  %8 = getelementptr inbounds nuw %struct.sat_solver3_t, ptr %7, i32 0, i32 3
  %9 = load i32, ptr %8, align 4, !tbaa !58
  call void @veci_push(ptr noundef %6, i32 noundef %9)
  %10 = load ptr, ptr %3, align 8, !tbaa !3
  %11 = load i32, ptr %4, align 4, !tbaa !8
  %12 = call i32 @sat_solver3_enqueue(ptr noundef %10, i32 noundef %11, i32 noundef 0)
  ret i32 %12
}