; Function Attrs: inlinehint nounwind uwtable
define internal fastcc void @sat_solver3_decision(ptr noundef captures(none) %0, i32 noundef %1) unnamed_addr #13 {
  %3 = getelementptr inbounds nuw i8, ptr %0, i64 312
  %4 = getelementptr inbounds nuw i8, ptr %0, i64 12
  %5 = load i32, ptr %4, align 4, !tbaa !51
  %6 = getelementptr i8, ptr %0, i64 316
  %7 = load i32, ptr %6, align 4, !tbaa !34
  %8 = load i32, ptr %3, align 8, !tbaa !35
  %9 = icmp eq i32 %7, %8
  br i1 %9, label %10, label %veci_push.exit

10:                                               ; preds = %2
  %11 = icmp slt i32 %7, 4
  %12 = shl nsw i32 %7, 1
  %13 = lshr i32 %7, 1
  %14 = mul nuw nsw i32 %13, 3
  %15 = select i1 %11, i32 %12, i32 %14
  %16 = getelementptr inbounds nuw i8, ptr %0, i64 320
  %17 = load ptr, ptr %16, align 8, !tbaa !28
  %.not.i = icmp eq ptr %17, null
  %18 = sext i32 %15 to i64
  %19 = shl nsw i64 %18, 2
  br i1 %.not.i, label %22, label %20

20:                                               ; preds = %10
  %21 = tail call ptr @realloc(ptr noundef nonnull %17, i64 noundef %19) #28
  br label %24

22:                                               ; preds = %10
  %23 = tail call noalias ptr @malloc(i64 noundef %19) #29
  br label %24

24:                                               ; preds = %22, %20
  %25 = phi ptr [ %21, %20 ], [ %23, %22 ]
  store ptr %25, ptr %16, align 8, !tbaa !28
  %26 = icmp eq ptr %25, null
  br i1 %26, label %27, label %36

27:                                               ; preds = %24
  %28 = load i32, ptr %3, align 8, !tbaa !35
  %29 = sitofp i32 %28 to double
  %30 = fmul double %29, 0x3EB0000000000000
  %31 = sitofp i32 %15 to double
  %32 = fmul double %31, 0x3EB0000000000000
  %33 = tail call i32 (ptr, ...) @printf(ptr noundef nonnull dereferenceable(1) @.str.13, double noundef %30, double noundef %32)
  %34 = load ptr, ptr @stdout, align 8, !tbaa !36
  %35 = tail call i32 @fflush(ptr noundef %34)
  br label %36

36:                                               ; preds = %27, %24
  store i32 %15, ptr %3, align 8, !tbaa !35
  %.pre.i = load i32, ptr %6, align 4, !tbaa !34
  br label %veci_push.exit

veci_push.exit:                                   ; preds = %2, %36
  %37 = phi i32 [ %.pre.i, %36 ], [ %7, %2 ]
  %38 = getelementptr inbounds nuw i8, ptr %0, i64 320
  %39 = load ptr, ptr %38, align 8, !tbaa !28
  %40 = add nsw i32 %37, 1
  store i32 %40, ptr %6, align 4, !tbaa !34
  %41 = sext i32 %37 to i64
  %42 = getelementptr inbounds i32, ptr %39, i64 %41
  store i32 %5, ptr %42, align 4, !tbaa !29
  %43 = ashr i32 %1, 1
  %44 = getelementptr inbounds nuw i8, ptr %0, i64 184
  %45 = load ptr, ptr %44, align 8, !tbaa !55
  %46 = sext i32 %43 to i64
  %47 = getelementptr inbounds i8, ptr %45, i64 %46
  %48 = load i8, ptr %47, align 1, !tbaa !22
  %49 = icmp eq i8 %48, 0
  br i1 %49, label %50, label %51

50:                                               ; preds = %veci_push.exit
  store i8 1, ptr %47, align 1, !tbaa !22
  br label %51

51:                                               ; preds = %50, %veci_push.exit
  %52 = getelementptr i8, ptr %0, i64 208
  %.val24.i = load ptr, ptr %52, align 8, !tbaa !3
  %53 = getelementptr inbounds i8, ptr %.val24.i, i64 %46
  %54 = load i8, ptr %53, align 1, !tbaa !22
  %.not.i3 = icmp eq i8 %54, 3
  br i1 %.not.i3, label %55, label %sat_solver3_enqueue.exit

55:                                               ; preds = %51
  %56 = trunc i32 %1 to i8
  %57 = and i8 %56, 1
  store i8 %57, ptr %53, align 1, !tbaa !22
  %.val26.i = load i32, ptr %6, align 4, !tbaa !34
  %58 = getelementptr i8, ptr %0, i64 200
  %.val27.i = load ptr, ptr %58, align 8, !tbaa !44
  %59 = getelementptr inbounds i32, ptr %.val27.i, i64 %46
  store i32 %.val26.i, ptr %59, align 4, !tbaa !29
  %60 = getelementptr inbounds nuw i8, ptr %0, i64 248
  %61 = load ptr, ptr %60, align 8, !tbaa !56
  %62 = getelementptr inbounds i32, ptr %61, i64 %46
  store i32 0, ptr %62, align 4, !tbaa !29
  %63 = getelementptr inbounds nuw i8, ptr %0, i64 256
  %64 = load ptr, ptr %63, align 8, !tbaa !53
  %65 = load i32, ptr %4, align 4, !tbaa !51
  %66 = add nsw i32 %65, 1
  store i32 %66, ptr %4, align 4, !tbaa !51
  %67 = sext i32 %65 to i64
  %68 = getelementptr inbounds i32, ptr %64, i64 %67
  store i32 %1, ptr %68, align 4, !tbaa !29
  br label %sat_solver3_enqueue.exit

sat_solver3_enqueue.exit:                         ; preds = %51, %55
  ret void
}